; Function Attrs: mustprogress uwtable
define void @_ZN10open_spiel14GameRegistererC2ERKNS_8GameTypeESt8functionIFSt10shared_ptrIKNS_4GameEERKSt3mapINSt7__cxx1112basic_stringIcSt11char_traitsIcESaIcEEENS_13GameParameterESt4lessISF_ESaISt4pairIKSF_SG_EEEEE(ptr nonnull readnone align 1 captures(none) %0, ptr noundef nonnull align 8 dereferenceable(146) %1, ptr noundef %2) unnamed_addr #3 align 2 personality ptr @__gxx_personality_v0 {
  %4 = alloca %"class.std::function.8", align 8
  %5 = getelementptr inbounds nuw i8, ptr %4, i64 16
  %6 = getelementptr inbounds nuw i8, ptr %4, i64 24
  %7 = getelementptr inbounds nuw i8, ptr %2, i64 16
  call void @llvm.memset.p0.i64(ptr noundef nonnull align 8 dereferenceable(32) %4, i8 0, i64 32, i1 false)
  %8 = load ptr, ptr %7, align 8
  %.not.i.i.not.i = icmp eq ptr %8, null
  br i1 %.not.i.i.not.i, label %_ZNSt8functionIFSt10shared_ptrIKN10open_spiel4GameEERKSt3mapINSt7__cxx1112basic_stringIcSt11char_traitsIcESaIcEEENS1_13GameParameterESt4lessISB_ESaISt4pairIKSB_SC_EEEEEC2ERKSN_.exit, label %9

9:                                                ; preds = %3
  %10 = invoke noundef zeroext i1 %8(ptr noundef nonnull align 8 dereferenceable(32) %4, ptr noundef nonnull align 8 dereferenceable(32) %2, i32 noundef 2)
          to label %11 unwind label %15

11:                                               ; preds = %9
  %12 = getelementptr inbounds nuw i8, ptr %2, i64 24
  %13 = load ptr, ptr %12, align 8
  store ptr %13, ptr %6, align 8
  %14 = load ptr, ptr %7, align 8
  store ptr %14, ptr %5, align 8
  br label %_ZNSt8functionIFSt10shared_ptrIKN10open_spiel4GameEERKSt3mapINSt7__cxx1112basic_stringIcSt11char_traitsIcESaIcEEENS1_13GameParameterESt4lessISB_ESaISt4pairIKSB_SC_EEEEEC2ERKSN_.exit

15:                                               ; preds = %9
  %16 = landingpad { ptr, i32 }
          cleanup
  %17 = load ptr, ptr %5, align 8
  %.not.i.i = icmp eq ptr %17, null
  br i1 %.not.i.i, label %common.resume, label %18

18:                                               ; preds = %15
  %19 = invoke noundef zeroext i1 %17(ptr noundef nonnull align 8 dereferenceable(32) %4, ptr noundef nonnull align 8 dereferenceable(32) %4, i32 noundef 3)
          to label %common.resume unwind label %20

20:                                               ; preds = %18
  %21 = landingpad { ptr, i32 }
          catch ptr null
  %22 = extractvalue { ptr, i32 } %21, 0
  call void @__clang_call_terminate(ptr %22) #31
  unreachable

common.resume:                                    ; preds = %33, %30, %15, %18
  %common.resume.op = phi { ptr, i32 } [ %16, %18 ], [ %16, %15 ], [ %31, %30 ], [ %31, %33 ]
  resume { ptr, i32 } %common.resume.op

_ZNSt8functionIFSt10shared_ptrIKN10open_spiel4GameEERKSt3mapINSt7__cxx1112basic_stringIcSt11char_traitsIcESaIcEEENS1_13GameParameterESt4lessISB_ESaISt4pairIKSB_SC_EEEEEC2ERKSN_.exit: ; preds = %3, %11
  invoke void @_ZN10open_spiel14GameRegisterer12RegisterGameERKNS_8GameTypeESt8functionIFSt10shared_ptrIKNS_4GameEERKSt3mapINSt7__cxx1112basic_stringIcSt11char_traitsIcESaIcEEENS_13GameParameterESt4lessISF_ESaISt4pairIKSF_SG_EEEEE(ptr noundef nonnull align 8 dereferenceable(146) %1, ptr noundef nonnull %4)
          to label %23 unwind label %30

23:                                               ; preds = %_ZNSt8functionIFSt10shared_ptrIKN10open_spiel4GameEERKSt3mapINSt7__cxx1112basic_stringIcSt11char_traitsIcESaIcEEENS1_13GameParameterESt4lessISB_ESaISt4pairIKSB_SC_EEEEEC2ERKSN_.exit
  %24 = load ptr, ptr %5, align 8
  %.not.i.i2 = icmp eq ptr %24, null
  br i1 %.not.i.i2, label %_ZNSt8functionIFSt10shared_ptrIKN10open_spiel4GameEERKSt3mapINSt7__cxx1112basic_stringIcSt11char_traitsIcESaIcEEENS1_13GameParameterESt4lessISB_ESaISt4pairIKSB_SC_EEEEED2Ev.exit, label %25

25:                                               ; preds = %23
  %26 = invoke noundef zeroext i1 %24(ptr noundef nonnull align 8 dereferenceable(32) %4, ptr noundef nonnull align 8 dereferenceable(32) %4, i32 noundef 3)
          to label %_ZNSt8functionIFSt10shared_ptrIKN10open_spiel4GameEERKSt3mapINSt7__cxx1112basic_stringIcSt11char_traitsIcESaIcEEENS1_13GameParameterESt4lessISB_ESaISt4pairIKSB_SC_EEEEED2Ev.exit unwind label %27

27:                                               ; preds = %25
  %28 = landingpad { ptr, i32 }
          catch ptr null
  %29 = extractvalue { ptr, i32 } %28, 0
  call void @__clang_call_terminate(ptr %29) #31
  unreachable

_ZNSt8functionIFSt10shared_ptrIKN10open_spiel4GameEERKSt3mapINSt7__cxx1112basic_stringIcSt11char_traitsIcESaIcEEENS1_13GameParameterESt4lessISB_ESaISt4pairIKSB_SC_EEEEED2Ev.exit: ; preds = %23, %25
  ret void

30:                                               ; preds = %_ZNSt8functionIFSt10shared_ptrIKN10open_spiel4GameEERKSt3mapINSt7__cxx1112basic_stringIcSt11char_traitsIcESaIcEEENS1_13GameParameterESt4lessISB_ESaISt4pairIKSB_SC_EEEEEC2ERKSN_.exit
  %31 = landingpad { ptr, i32 }
          cleanup
  %32 = load ptr, ptr %5, align 8
  %.not.i.i4 = icmp eq ptr %32, null
  br i1 %.not.i.i4, label %common.resume, label %33

33:                                               ; preds = %30
  %34 = invoke noundef zeroext i1 %32(ptr noundef nonnull align 8 dereferenceable(32) %4, ptr noundef nonnull align 8 dereferenceable(32) %4, i32 noundef 3)
          to label %common.resume unwind label %35

35:                                               ; preds = %33
  %36 = landingpad { ptr, i32 }
          catch ptr null
  %37 = extractvalue { ptr, i32 } %36, 0
  call void @__clang_call_terminate(ptr %37) #31
  unreachable
}